target datalayout = "e-m:e-p270:32:32-p271:32:32-p272:64:64-i64:64-i128:128-f80:128-n8:16:32:64-S128"
target triple = "x86_64-pc-linux-gnu"

%struct._lv_global_t = type { i8, i8, %struct.lv_ll_t, ptr, ptr, %struct.lv_ll_t, i8, i32, i32, ptr, %struct.lv_ll_t, ptr, %struct.lv_ll_t, ptr, ptr, i32, ptr, i8, i32, i32, ptr, i32, %struct.lv_timer_state_t, %struct.lv_anim_state_t, %struct.lv_tick_state_t, %struct._lv_draw_buf_handlers_t, %struct._lv_draw_buf_handlers_t, %struct._lv_draw_buf_handlers_t, %struct.lv_ll_t, ptr, ptr, %struct.lv_draw_global_info_t, [4 x %struct.lv_draw_sw_mask_radius_circle_dsc_t], ptr, ptr, ptr, %struct.lv_tlsf_state_t, %struct.lv_ll_t, ptr, ptr, %struct.lv_style_t, i64, ptr, i32, ptr }
%struct.lv_timer_state_t = type { %struct.lv_ll_t, i8, i8, i8, i8, i32, i8, i32, i32, i32, i32, ptr, ptr }
%struct.lv_anim_state_t = type { i8, i8, ptr, %struct.lv_ll_t }
%struct.lv_tick_state_t = type { i32, i8, ptr, ptr }
%struct._lv_draw_buf_handlers_t = type { ptr, ptr, ptr, ptr, ptr, ptr }
%struct.lv_draw_global_info_t = type { ptr, i32, i32, i32, i32, i8 }
%struct.lv_draw_sw_mask_radius_circle_dsc_t = type { ptr, ptr, ptr, ptr, i32, i32, i32 }
%struct.lv_tlsf_state_t = type { ptr, i64, i64, %struct.lv_ll_t }
%struct.lv_ll_t = type { i32, ptr, ptr }
%struct.lv_style_t = type { ptr, i32, i8 }
%struct._lv_fs_drv_t = type { i8, i32, ptr, ptr, ptr, ptr, ptr, ptr, ptr, ptr, ptr, ptr, ptr }

@lv_global = external global %struct._lv_global_t, align 8

; Function Attrs: nounwind uwtable
define ptr @lv_fs_get_letters(ptr noundef %0) #0 {
  %2 = alloca ptr, align 8
  %3 = alloca ptr, align 8
  %4 = alloca i8, align 1
  store ptr %0, ptr %2, align 8, !tbaa !6
  call void @llvm.lifetime.start.p0(i64 8, ptr %3) #4
  call void @llvm.lifetime.start.p0(i64 1, ptr %4) #4
  store i8 0, ptr %4, align 1, !tbaa !3
  %5 = call ptr @lv_ll_get_head(ptr noundef getelementptr inbounds nuw (%struct._lv_global_t, ptr @lv_global, i32 0, i32 37))
  store ptr %5, ptr %3, align 8, !tbaa !6
  br label %6

6:                                                ; preds = %20, %1
  %7 = load ptr, ptr %3, align 8, !tbaa !6
  %8 = icmp ne ptr %7, null
  br i1 %8, label %9, label %23

9:                                                ; preds = %6
  %10 = load ptr, ptr %3, align 8, !tbaa !6
  %11 = load ptr, ptr %10, align 8, !tbaa !6
  %12 = getelementptr inbounds nuw %struct._lv_fs_drv_t, ptr %11, i32 0, i32 0
  %13 = load i8, ptr %12, align 8, !tbaa !11
  %14 = load ptr, ptr %2, align 8, !tbaa !6
  %15 = load i8, ptr %4, align 1, !tbaa !3
  %16 = zext i8 %15 to i64
  %17 = getelementptr inbounds nuw i8, ptr %14, i64 %16
  store i8 %13, ptr %17, align 1, !tbaa !3
  %18 = load i8, ptr %4, align 1, !tbaa !3
  %19 = add i8 %18, 1
  store i8 %19, ptr %4, align 1, !tbaa !3
  br label %20

20:                                               ; preds = %9
  %21 = load ptr, ptr %3, align 8, !tbaa !6
  %22 = call ptr @lv_ll_get_next(ptr noundef getelementptr inbounds nuw (%struct._lv_global_t, ptr @lv_global, i32 0, i32 37), ptr noundef %21)
  store ptr %22, ptr %3, align 8, !tbaa !6
  br label %6, !llvm.loop !47

23:                                               ; preds = %6
  %24 = load ptr, ptr %2, align 8, !tbaa !6
  %25 = load i8, ptr %4, align 1, !tbaa !3
  %26 = zext i8 %25 to i64
  %27 = getelementptr inbounds nuw i8, ptr %24, i64 %26
  store i8 0, ptr %27, align 1, !tbaa !3
  %28 = load ptr, ptr %2, align 8, !tbaa !6
  call void @llvm.lifetime.end.p0(i64 1, ptr %4) #4
  call void @llvm.lifetime.end.p0(i64 8, ptr %3) #4
  ret ptr %28
}