; Function Attrs: nounwind uwtable
define noundef ptr @lv_fs_get_letters(ptr noundef returned writeonly %0) local_unnamed_addr #0 {
  %2 = tail call ptr @lv_ll_get_head(ptr noundef nonnull getelementptr inbounds nuw (i8, ptr @lv_global, i64 832)) #6
  %.not9 = icmp eq ptr %2, null
  br i1 %.not9, label %._crit_edge, label %.lr.ph

.lr.ph:                                           ; preds = %1, %.lr.ph
  %.011 = phi i8 [ %7, %.lr.ph ], [ 0, %1 ]
  %.0810 = phi ptr [ %8, %.lr.ph ], [ %2, %1 ]
  %3 = load ptr, ptr %.0810, align 8, !tbaa !3
  %4 = load i8, ptr %3, align 8, !tbaa !7
  %5 = zext i8 %.011 to i64
  %6 = getelementptr inbounds nuw i8, ptr %0, i64 %5
  store i8 %4, ptr %6, align 1, !tbaa !13
  %7 = add i8 %.011, 1
  %8 = tail call ptr @lv_ll_get_next(ptr noundef nonnull getelementptr inbounds nuw (i8, ptr @lv_global, i64 832), ptr noundef nonnull %.0810) #6
  %.not = icmp eq ptr %8, null
  br i1 %.not, label %._crit_edge.loopexit, label %.lr.ph, !llvm.loop !40

._crit_edge.loopexit:                             ; preds = %.lr.ph
  %9 = zext i8 %7 to i64
  br label %._crit_edge

._crit_edge:                                      ; preds = %._crit_edge.loopexit, %1
  %.0.lcssa = phi i64 [ 0, %1 ], [ %9, %._crit_edge.loopexit ]
  %10 = getelementptr inbounds nuw i8, ptr %0, i64 %.0.lcssa
  store i8 0, ptr %10, align 1, !tbaa !13
  ret ptr %0
}